target datalayout = "e-m:e-p270:32:32-p271:32:32-p272:64:64-i64:64-i128:128-f80:128-n8:16:32:64-S128"
target triple = "x86_64-pc-linux-gnu"

%struct.VuDev = type { i32, i32, ptr, ptr, %struct.VuDevInflightInfo, i32, %union.pthread_mutex_t, i32, i64, ptr, i64, i64, i8, i16, ptr, ptr, ptr, ptr, ptr, i32, i8 }
%struct.VuDevInflightInfo = type { i32, ptr, i64 }
%union.pthread_mutex_t = type { %struct.__pthread_mutex_s }
%struct.__pthread_mutex_s = type { i32, i32, i32, i32, i32, i16, i16, %struct.__pthread_internal_list }
%struct.__pthread_internal_list = type { ptr, ptr }
%struct.VhostUserMsg = type <{ i32, i32, i32, %union.anon, [8 x i32], i32, ptr }>
%union.anon = type { %struct.VhostUserMemory, [8 x i8] }
%struct.VhostUserMemory = type { i32, i32, [8 x %struct.VhostUserMemoryRegion] }
%struct.VhostUserMemoryRegion = type { i64, i64, i64, i64 }
%struct.VhostUserVringArea = type { i64, i64, i64 }

@.str.40 = private unnamed_addr constant [50 x i8] c"../qemu/subprojects/libvhost-user/libvhost-user.c\00", align 1
@.str.52 = private unnamed_addr constant [10 x i8] c"fbit < 64\00", align 1
@__PRETTY_FUNCTION__.has_feature = private unnamed_addr constant [42 x i8] c"_Bool has_feature(uint64_t, unsigned int)\00", align 1

; Function Attrs: inlinehint nounwind uwtable
define internal zeroext i1 @has_feature(i64 noundef %0, i32 noundef %1) #3 {
  %3 = alloca i64, align 8
  %4 = alloca i32, align 4
  store i64 %0, ptr %3, align 8
  store i32 %1, ptr %4, align 4
  %5 = load i32, ptr %4, align 4
  %6 = icmp ult i32 %5, 64
  br i1 %6, label %7, label %8

7:                                                ; preds = %2
  br label %9

8:                                                ; preds = %2
  call void @__assert_fail(ptr noundef @.str.52, ptr noundef @.str.40, i32 noundef 109, ptr noundef @__PRETTY_FUNCTION__.has_feature) #15
  unreachable

9:                                                ; preds = %7
  %10 = load i64, ptr %3, align 8
  %11 = load i32, ptr %4, align 4
  %12 = zext i32 %11 to i64
  %13 = shl i64 1, %12
  %14 = and i64 %10, %13
  %15 = icmp ne i64 %14, 0
  %16 = xor i1 %15, true
  %17 = xor i1 %16, true
  ret i1 %17
}

; Function Attrs: nounwind uwtable
define internal zeroext i1 @vu_process_message_reply(ptr noundef %0, ptr noundef %1) #0 {
  %3 = alloca ptr, align 8
  %4 = alloca ptr, align 8
  %5 = alloca %struct.VhostUserMsg, align 1
  %6 = alloca i8, align 1
  store ptr %0, ptr %3, align 8
  store ptr %1, ptr %4, align 8
  call void @llvm.lifetime.start.p0(i64 328, ptr %5) #13
  call void @llvm.memset.p0.i64(ptr align 1 %5, i8 0, i64 328, i1 false), !annotation !4
  call void @llvm.lifetime.start.p0(i64 1, ptr %6) #13
  store i8 0, ptr %6, align 1
  %7 = load ptr, ptr %4, align 8
  %8 = getelementptr inbounds nuw %struct.VhostUserMsg, ptr %7, i32 0, i32 1
  %9 = load i32, ptr %8, align 1
  %10 = and i32 %9, 8
  %11 = icmp eq i32 %10, 0
  br i1 %11, label %12, label %13

12:                                               ; preds = %2
  store i8 1, ptr %6, align 1
  br label %36

13:                                               ; preds = %2
  %14 = load ptr, ptr %3, align 8
  %15 = load ptr, ptr %3, align 8
  %16 = getelementptr inbounds nuw %struct.VuDev, ptr %15, i32 0, i32 7
  %17 = load i32, ptr %16, align 8
  %18 = call zeroext i1 @vu_message_read_default(ptr noundef %14, i32 noundef %17, ptr noundef %5)
  br i1 %18, label %20, label %19

19:                                               ; preds = %13
  br label %36

20:                                               ; preds = %13
  %21 = getelementptr inbounds nuw %struct.VhostUserMsg, ptr %5, i32 0, i32 0
  %22 = load i32, ptr %21, align 1
  %23 = load ptr, ptr %4, align 8
  %24 = getelementptr inbounds nuw %struct.VhostUserMsg, ptr %23, i32 0, i32 0
  %25 = load i32, ptr %24, align 1
  %26 = icmp ne i32 %22, %25
  br i1 %26, label %27, label %31

27:                                               ; preds = %20
  br label %28

28:                                               ; preds = %27
  br label %29

29:                                               ; preds = %28
  br label %30

30:                                               ; preds = %29
  br label %36

31:                                               ; preds = %20
  %32 = getelementptr inbounds nuw %struct.VhostUserMsg, ptr %5, i32 0, i32 3
  %33 = load i64, ptr %32, align 1
  %34 = icmp eq i64 %33, 0
  %35 = zext i1 %34 to i8
  store i8 %35, ptr %6, align 1
  br label %36

36:                                               ; preds = %31, %30, %19, %12
  %37 = load ptr, ptr %3, align 8
  %38 = getelementptr inbounds nuw %struct.VuDev, ptr %37, i32 0, i32 6
  %39 = call i32 @pthread_mutex_unlock(ptr noundef %38) #13
  %40 = load i8, ptr %6, align 1, !range !5, !noundef !6
  %41 = trunc i8 %40 to i1
  call void @llvm.lifetime.end.p0(i64 1, ptr %6) #13
  call void @llvm.lifetime.end.p0(i64 328, ptr %5) #13
  ret i1 %41
}

; Function Attrs: inlinehint nounwind uwtable
define internal zeroext i1 @vu_has_protocol_feature(ptr noundef %0, i32 noundef %1) #3 {
  %3 = alloca ptr, align 8
  %4 = alloca i32, align 4
  store ptr %0, ptr %3, align 8
  store i32 %1, ptr %4, align 4
  %5 = load ptr, ptr %3, align 8
  %6 = getelementptr inbounds nuw %struct.VuDev, ptr %5, i32 0, i32 11
  %7 = load i64, ptr %6, align 8
  %8 = load i32, ptr %4, align 4
  %9 = call zeroext i1 @has_feature(i64 noundef %7, i32 noundef %8)
  ret i1 %9
}

; Function Attrs: nounwind uwtable
define dso_local zeroext i1 @vu_set_queue_host_notifier(ptr noundef %0, ptr noundef %1, i32 noundef %2, i32 noundef %3, i32 noundef %4) #0 {
  %6 = alloca i1, align 1
  %7 = alloca ptr, align 8
  %8 = alloca ptr, align 8
  %9 = alloca i32, align 4
  %10 = alloca i32, align 4
  %11 = alloca i32, align 4
  %12 = alloca i32, align 4
  %13 = alloca i32, align 4
  %14 = alloca %struct.VhostUserMsg, align 1
  %15 = alloca i32, align 4
  store ptr %0, ptr %7, align 8
  store ptr %1, ptr %8, align 8
  store i32 %2, ptr %9, align 4
  store i32 %3, ptr %10, align 4
  store i32 %4, ptr %11, align 4
  call void @llvm.lifetime.start.p0(i64 4, ptr %12) #13
  %16 = load ptr, ptr %8, align 8
  %17 = load ptr, ptr %7, align 8
  %18 = getelementptr inbounds nuw %struct.VuDev, ptr %17, i32 0, i32 3
  %19 = load ptr, ptr %18, align 8
  %20 = ptrtoint ptr %16 to i64
  %21 = ptrtoint ptr %19 to i64
  %22 = sub i64 %20, %21
  %23 = sdiv exact i64 %22, 168
  %24 = trunc i64 %23 to i32
  store i32 %24, ptr %12, align 4
  call void @llvm.lifetime.start.p0(i64 4, ptr %13) #13
  store i32 0, ptr %13, align 4
  call void @llvm.lifetime.start.p0(i64 328, ptr %14) #13
  call void @llvm.memset.p0.i64(ptr align 1 %14, i8 0, i64 328, i1 false), !annotation !4
  call void @llvm.memset.p0.i64(ptr align 1 %14, i8 0, i64 328, i1 false)
  %25 = getelementptr inbounds nuw %struct.VhostUserMsg, ptr %14, i32 0, i32 0
  store i32 3, ptr %25, align 1
  %26 = getelementptr inbounds nuw %struct.VhostUserMsg, ptr %14, i32 0, i32 1
  store i32 9, ptr %26, align 1
  %27 = getelementptr inbounds nuw %struct.VhostUserMsg, ptr %14, i32 0, i32 2
  store i32 24, ptr %27, align 1
  %28 = getelementptr inbounds nuw %struct.VhostUserMsg, ptr %14, i32 0, i32 3
  %29 = getelementptr inbounds nuw %struct.VhostUserVringArea, ptr %28, i32 0, i32 0
  %30 = load i32, ptr %12, align 4
  %31 = and i32 %30, 255
  %32 = sext i32 %31 to i64
  store i64 %32, ptr %29, align 1
  %33 = getelementptr inbounds nuw %struct.VhostUserVringArea, ptr %28, i32 0, i32 1
  %34 = load i32, ptr %10, align 4
  %35 = sext i32 %34 to i64
  store i64 %35, ptr %33, align 1
  %36 = getelementptr inbounds nuw %struct.VhostUserVringArea, ptr %28, i32 0, i32 2
  %37 = load i32, ptr %11, align 4
  %38 = sext i32 %37 to i64
  store i64 %38, ptr %36, align 1
  %39 = load i32, ptr %9, align 4
  %40 = icmp eq i32 %39, -1
  br i1 %40, label %41, label %46

41:                                               ; preds = %5
  %42 = getelementptr inbounds nuw %struct.VhostUserMsg, ptr %14, i32 0, i32 3
  %43 = getelementptr inbounds nuw %struct.VhostUserVringArea, ptr %42, i32 0, i32 0
  %44 = load i64, ptr %43, align 1
  %45 = or i64 %44, 256
  store i64 %45, ptr %43, align 1
  br label %53

46:                                               ; preds = %5
  %47 = load i32, ptr %9, align 4
  %48 = getelementptr inbounds nuw %struct.VhostUserMsg, ptr %14, i32 0, i32 4
  %49 = load i32, ptr %13, align 4
  %50 = add i32 %49, 1
  store i32 %50, ptr %13, align 4
  %51 = sext i32 %49 to i64
  %52 = getelementptr inbounds [8 x i32], ptr %48, i64 0, i64 %51
  store i32 %47, ptr %52, align 1
  br label %53

53:                                               ; preds = %46, %41
  %54 = load i32, ptr %13, align 4
  %55 = getelementptr inbounds nuw %struct.VhostUserMsg, ptr %14, i32 0, i32 5
  store i32 %54, ptr %55, align 1
  %56 = load ptr, ptr %7, align 8
  %57 = call zeroext i1 @vu_has_protocol_feature(ptr noundef %56, i32 noundef 10)
  br i1 %57, label %59, label %58

58:                                               ; preds = %53
  store i1 false, ptr %6, align 1
  store i32 1, ptr %15, align 4
  br label %75

59:                                               ; preds = %53
  %60 = load ptr, ptr %7, align 8
  %61 = getelementptr inbounds nuw %struct.VuDev, ptr %60, i32 0, i32 6
  %62 = call i32 @pthread_mutex_lock(ptr noundef %61) #13
  %63 = load ptr, ptr %7, align 8
  %64 = load ptr, ptr %7, align 8
  %65 = getelementptr inbounds nuw %struct.VuDev, ptr %64, i32 0, i32 7
  %66 = load i32, ptr %65, align 8
  %67 = call zeroext i1 @vu_message_write(ptr noundef %63, i32 noundef %66, ptr noundef %14)
  br i1 %67, label %72, label %68

68:                                               ; preds = %59
  %69 = load ptr, ptr %7, align 8
  %70 = getelementptr inbounds nuw %struct.VuDev, ptr %69, i32 0, i32 6
  %71 = call i32 @pthread_mutex_unlock(ptr noundef %70) #13
  store i1 false, ptr %6, align 1
  store i32 1, ptr %15, align 4
  br label %75

72:                                               ; preds = %59
  %73 = load ptr, ptr %7, align 8
  %74 = call zeroext i1 @vu_process_message_reply(ptr noundef %73, ptr noundef %14)
  store i1 %74, ptr %6, align 1
  store i32 1, ptr %15, align 4
  br label %75

75:                                               ; preds = %72, %68, %58
  call void @llvm.lifetime.end.p0(i64 328, ptr %14) #13
  call void @llvm.lifetime.end.p0(i64 4, ptr %13) #13
  call void @llvm.lifetime.end.p0(i64 4, ptr %12) #13
  %76 = load i1, ptr %6, align 1
  ret i1 %76
}