; Function Attrs: nounwind uwtable
define dso_local zeroext i1 @vu_set_queue_host_notifier(ptr noundef %0, ptr noundef %1, i32 noundef %2, i32 noundef %3, i32 noundef %4) local_unnamed_addr #3 {
  %6 = alloca %struct.VhostUserMsg, align 4
  %7 = alloca %struct.VhostUserMsg, align 4
  %8 = getelementptr inbounds nuw i8, ptr %0, i64 16
  %9 = load ptr, ptr %8, align 8
  %10 = ptrtoint ptr %1 to i64
  %11 = ptrtoint ptr %9 to i64
  %12 = sub i64 %10, %11
  %13 = sdiv exact i64 %12, 168
  call void @llvm.lifetime.start.p0(i64 328, ptr nonnull %7) #21
  %14 = getelementptr inbounds nuw i8, ptr %7, i64 36
  call void @llvm.memset.p0.i64(ptr noundef nonnull align 4 dereferenceable(292) %14, i8 0, i64 292, i1 false)
  store i32 3, ptr %7, align 4
  %15 = getelementptr inbounds nuw i8, ptr %7, i64 4
  store i32 9, ptr %15, align 4
  %16 = getelementptr inbounds nuw i8, ptr %7, i64 8
  store i32 24, ptr %16, align 4
  %17 = getelementptr inbounds nuw i8, ptr %7, i64 12
  %18 = and i64 %13, 255
  store i64 %18, ptr %17, align 4
  %19 = getelementptr inbounds nuw i8, ptr %7, i64 20
  %20 = sext i32 %3 to i64
  store i64 %20, ptr %19, align 4
  %21 = getelementptr inbounds nuw i8, ptr %7, i64 28
  %22 = sext i32 %4 to i64
  store i64 %22, ptr %21, align 4
  %23 = icmp eq i32 %2, -1
  br i1 %23, label %24, label %26

24:                                               ; preds = %5
  %25 = or disjoint i64 %18, 256
  store i64 %25, ptr %17, align 4
  br label %28

26:                                               ; preds = %5
  %27 = getelementptr inbounds nuw i8, ptr %7, i64 284
  store i32 %2, ptr %27, align 4
  br label %28

28:                                               ; preds = %26, %24
  %.0 = phi i32 [ 0, %24 ], [ 1, %26 ]
  %29 = getelementptr inbounds nuw i8, ptr %7, i64 316
  store i32 %.0, ptr %29, align 4
  %30 = getelementptr i8, ptr %0, i64 128
  %.val = load i64, ptr %30, align 8
  %31 = and i64 %.val, 1024
  %.not = icmp eq i64 %31, 0
  br i1 %.not, label %55, label %32

32:                                               ; preds = %28
  %33 = getelementptr inbounds nuw i8, ptr %0, i64 56
  %34 = tail call i32 @pthread_mutex_lock(ptr noundef nonnull %33) #21
  %35 = getelementptr inbounds nuw i8, ptr %0, i64 96
  %36 = load i32, ptr %35, align 8
  %37 = call fastcc zeroext i1 @vu_message_write(ptr noundef nonnull %0, i32 noundef %36, ptr noundef %7)
  br i1 %37, label %40, label %38

38:                                               ; preds = %32
  %39 = call i32 @pthread_mutex_unlock(ptr noundef nonnull %33) #21
  br label %55

40:                                               ; preds = %32
  call void @llvm.lifetime.start.p0(i64 328, ptr nonnull %6) #21
  call void @llvm.memset.p0.i64(ptr noundef nonnull align 4 dereferenceable(328) %6, i8 0, i64 328, i1 false), !annotation !4
  %41 = load i32, ptr %15, align 4
  %42 = and i32 %41, 8
  %43 = icmp eq i32 %42, 0
  br i1 %43, label %vu_process_message_reply.exit, label %44

44:                                               ; preds = %40
  %45 = load i32, ptr %35, align 8
  %46 = call zeroext i1 @vu_message_read_default(ptr noundef nonnull %0, i32 noundef %45, ptr noundef nonnull %6)
  br i1 %46, label %47, label %vu_process_message_reply.exit

47:                                               ; preds = %44
  %48 = load i32, ptr %6, align 4
  %49 = load i32, ptr %7, align 4
  %.not.i = icmp eq i32 %48, %49
  br i1 %.not.i, label %50, label %vu_process_message_reply.exit

50:                                               ; preds = %47
  %51 = getelementptr inbounds nuw i8, ptr %6, i64 12
  %52 = load i64, ptr %51, align 4
  %53 = icmp eq i64 %52, 0
  br label %vu_process_message_reply.exit

vu_process_message_reply.exit:                    ; preds = %40, %44, %47, %50
  %.0.i = phi i1 [ false, %47 ], [ %53, %50 ], [ false, %44 ], [ true, %40 ]
  %54 = call i32 @pthread_mutex_unlock(ptr noundef nonnull %33) #21
  call void @llvm.lifetime.end.p0(i64 328, ptr nonnull %6) #21
  br label %55

55:                                               ; preds = %28, %vu_process_message_reply.exit, %38
  %.015 = phi i1 [ %.0.i, %vu_process_message_reply.exit ], [ false, %38 ], [ false, %28 ]
  call void @llvm.lifetime.end.p0(i64 328, ptr nonnull %7) #21
  ret i1 %.015
}